#include <math.h>
#include <stdio.h>
#include <stdlib.h>
#include <string.h>

int main()
{
    int n,i,j;
    char s[256];
    scanf("%d",&n);
    scanf("\n");
    for(i=0;i<n;i++){
        scanf("%s",&s);
        scanf("\n");
        for(j=0;s[j]!='\0';j++){
            if(s[j]=='A'){
                s[j]='T';
                continue;
            }
            else if(s[j]=='T'){
                s[j]='A';
                continue;
            }
            else if(s[j]=='C'){
                s[j]='G';
                continue;
            }
            else if(s[j]=='G'){
                s[j]='C';
                continue;
            }
        }
        printf("%s",s);
        printf("\n");
    }
    return 0;
}